target datalayout = "e-m:e-p270:32:32-p271:32:32-p272:64:64-i64:64-i128:128-f80:128-n8:16:32:64-S128"
target triple = "x86_64-pc-linux-gnu"

%union.PJ_COORD = type { [4 x double] }
%struct.PJconsts = type <{ ptr, ptr, ptr, ptr, ptr, ptr, ptr, ptr, ptr, ptr, ptr, ptr, i32, [4 x i8], ptr, ptr, ptr, ptr, ptr, ptr, ptr, ptr, double, double, double, double, double, double, double, double, double, double, double, double, double, double, double, double, double, double, double, double, double, double, i32, i32, i32, i32, i32, i32, i32, i32, i32, i32, i32, [4 x i8], ptr, ptr, ptr, ptr, ptr, ptr, double, double, double, double, double, double, double, double, double, double, double, i32, [4 x i8], [7 x double], i32, [4 x i8], ptr, ptr, double, double, i32, [4 x i8], %"class.std::shared_ptr", i8, [7 x i8], double, i8, [7 x i8], %"class.std::__cxx11::basic_string", %"class.std::__cxx11::basic_string", %"class.std::__cxx11::basic_string", i8, [7 x i8], %"class.std::vector", i32, [4 x i8], %"class.std::vector.3", i32, i8, i8, i8, i8 }>
%"class.std::shared_ptr" = type { %"class.std::__shared_ptr" }
%"class.std::__shared_ptr" = type { ptr, %"class.std::__shared_count" }
%"class.std::__shared_count" = type { ptr }
%"class.std::__cxx11::basic_string" = type { %"struct.std::__cxx11::basic_string<char>::_Alloc_hider", i64, %union.anon }
%"struct.std::__cxx11::basic_string<char>::_Alloc_hider" = type { ptr }
%union.anon = type { i64, [8 x i8] }
%"class.std::vector" = type { %"struct.std::_Vector_base" }
%"struct.std::_Vector_base" = type { %"struct.std::_Vector_base<osgeo::proj::operation::GridDescription, std::allocator<osgeo::proj::operation::GridDescription>>::_Vector_impl" }
%"struct.std::_Vector_base<osgeo::proj::operation::GridDescription, std::allocator<osgeo::proj::operation::GridDescription>>::_Vector_impl" = type { %"struct.std::_Vector_base<osgeo::proj::operation::GridDescription, std::allocator<osgeo::proj::operation::GridDescription>>::_Vector_impl_data" }
%"struct.std::_Vector_base<osgeo::proj::operation::GridDescription, std::allocator<osgeo::proj::operation::GridDescription>>::_Vector_impl_data" = type { ptr, ptr, ptr }
%"class.std::vector.3" = type { %"struct.std::_Vector_base.4" }
%"struct.std::_Vector_base.4" = type { %"struct.std::_Vector_base<PJCoordOperation, std::allocator<PJCoordOperation>>::_Vector_impl" }
%"struct.std::_Vector_base<PJCoordOperation, std::allocator<PJCoordOperation>>::_Vector_impl" = type { %"struct.std::_Vector_base<PJCoordOperation, std::allocator<PJCoordOperation>>::_Vector_impl_data" }
%"struct.std::_Vector_base<PJCoordOperation, std::allocator<PJCoordOperation>>::_Vector_impl_data" = type { ptr, ptr, ptr }
%struct.PJ_LP = type { double, double }
%struct.P5_FACTORS = type { double, double, double, double, double, double, double, double, double, double, double, double }
%struct.FACTORS = type { %struct.DERIVS, double, double, double, double, double, double, double, double, i32 }
%struct.DERIVS = type { double, double, double, double }

@.str.60 = private unnamed_addr constant [7 x i8] c"Radian\00", align 1
@.str.61 = private unnamed_addr constant [11 x i8] c"unname crs\00", align 1
@.str.62 = private unnamed_addr constant [14 x i8] c"unnamed datum\00", align 1
@.str.63 = private unnamed_addr constant [25 x i8] c"reference prime meridian\00", align 1
@.str.64 = private unnamed_addr constant [12 x i8] c"unnamed crs\00", align 1
@.str.65 = private unnamed_addr constant [6 x i8] c"metre\00", align 1
@.str.66 = private unnamed_addr constant [26 x i8] c"Invalid type for P object\00", align 1

; Function Attrs: mustprogress uwtable
define i32 @proj_errno_set(ptr noundef %0, i32 noundef %1) #1 {
  %3 = alloca i32, align 4
  %4 = alloca ptr, align 8
  %5 = alloca i32, align 4
  store ptr %0, ptr %4, align 8
  store i32 %1, ptr %5, align 4
  %6 = load i32, ptr %5, align 4
  %7 = icmp eq i32 0, %6
  br i1 %7, label %8, label %9

8:                                                ; preds = %2
  store i32 0, ptr %3, align 4
  br label %16

9:                                                ; preds = %2
  %10 = load ptr, ptr %4, align 8
  %11 = call noundef ptr @_Z10pj_get_ctxP8PJconsts(ptr noundef %10)
  %12 = load i32, ptr %5, align 4
  call void @_Z22proj_context_errno_setP6pj_ctxi(ptr noundef %11, i32 noundef %12)
  %13 = load i32, ptr %5, align 4
  %14 = call ptr @__errno_location() #20
  store i32 %13, ptr %14, align 4
  %15 = load i32, ptr %5, align 4
  store i32 %15, ptr %3, align 4
  br label %16

16:                                               ; preds = %9, %8
  %17 = load i32, ptr %3, align 4
  ret i32 %17
}

; Function Attrs: mustprogress uwtable
define void @proj_factors(ptr dead_on_unwind noalias writable sret(%struct.P5_FACTORS) align 8 %0, ptr noundef %1, ptr noundef byval(%union.PJ_COORD) align 8 %2) #1 {
  %4 = alloca ptr, align 8
  %5 = alloca %struct.P5_FACTORS, align 8
  %6 = alloca %struct.FACTORS, align 8
  %7 = alloca i32, align 4
  %8 = alloca ptr, align 8
  %9 = alloca ptr, align 8
  %10 = alloca %union.PJ_COORD, align 8
  %11 = alloca ptr, align 8
  %12 = alloca ptr, align 8
  %13 = alloca ptr, align 8
  %14 = alloca double, align 8
  %15 = alloca ptr, align 8
  %16 = alloca ptr, align 8
  %17 = alloca ptr, align 8
  %18 = alloca double, align 8
  %19 = alloca double, align 8
  %20 = alloca ptr, align 8
  %21 = alloca ptr, align 8
  %22 = alloca ptr, align 8
  %23 = alloca ptr, align 8
  %24 = alloca ptr, align 8
  %25 = alloca ptr, align 8
  %26 = alloca %union.PJ_COORD, align 8
  %27 = alloca %struct.PJ_LP, align 8
  store ptr %1, ptr %4, align 8
  call void @llvm.memset.p0.i64(ptr align 8 %5, i8 0, i64 96, i1 false)
  %28 = load ptr, ptr %4, align 8
  %29 = icmp eq ptr null, %28
  br i1 %29, label %30, label %31

30:                                               ; preds = %3
  call void @llvm.memcpy.p0.p0.i64(ptr align 8 %0, ptr align 8 %5, i64 96, i1 false)
  br label %206

31:                                               ; preds = %3
  %32 = load ptr, ptr %4, align 8
  %33 = call i32 @proj_get_type(ptr noundef %32)
  store i32 %33, ptr %7, align 4
  %34 = load i32, ptr %7, align 4
  %35 = icmp eq i32 %34, 16
  br i1 %35, label %36, label %50

36:                                               ; preds = %31
  %37 = load ptr, ptr %4, align 8
  %38 = getelementptr inbounds %struct.PJconsts, ptr %37, i32 0, i32 0
  %39 = load ptr, ptr %38, align 8
  store ptr %39, ptr %8, align 8
  %40 = load ptr, ptr %8, align 8
  %41 = load ptr, ptr %4, align 8
  %42 = call ptr @proj_crs_get_sub_crs(ptr noundef %40, ptr noundef %41, i32 noundef 0)
  store ptr %42, ptr %9, align 8
  %43 = load ptr, ptr %9, align 8
  %44 = icmp ne ptr %43, null
  br i1 %44, label %45, label %49

45:                                               ; preds = %36
  %46 = load ptr, ptr %9, align 8
  call void @llvm.memcpy.p0.p0.i64(ptr align 8 %10, ptr align 8 %2, i64 32, i1 false)
  call void @proj_factors(ptr dead_on_unwind writable sret(%struct.P5_FACTORS) align 8 %0, ptr noundef %46, ptr noundef byval(%union.PJ_COORD) align 8 %10)
  %47 = load ptr, ptr %9, align 8
  %48 = call ptr @proj_destroy(ptr noundef %47)
  br label %206

49:                                               ; preds = %36
  br label %50

50:                                               ; preds = %49, %31
  %51 = load i32, ptr %7, align 4
  %52 = icmp eq i32 %51, 15
  br i1 %52, label %53, label %140

53:                                               ; preds = %50
  %54 = load ptr, ptr %4, align 8
  %55 = getelementptr inbounds %struct.PJconsts, ptr %54, i32 0, i32 0
  %56 = load ptr, ptr %55, align 8
  store ptr %56, ptr %11, align 8
  %57 = load ptr, ptr %11, align 8
  %58 = load ptr, ptr %4, align 8
  %59 = call ptr @proj_get_source_crs(ptr noundef %57, ptr noundef %58)
  store ptr %59, ptr %12, align 8
  %60 = load ptr, ptr %11, align 8
  %61 = load ptr, ptr %12, align 8
  %62 = call ptr @proj_get_prime_meridian(ptr noundef %60, ptr noundef %61)
  store ptr %62, ptr %13, align 8
  store double 0.000000e+00, ptr %14, align 8
  %63 = load ptr, ptr %11, align 8
  %64 = load ptr, ptr %13, align 8
  %65 = call i32 @proj_prime_meridian_get_parameters(ptr noundef %63, ptr noundef %64, ptr noundef %14, ptr noundef null, ptr noundef null)
  %66 = load ptr, ptr %13, align 8
  %67 = call ptr @proj_destroy(ptr noundef %66)
  %68 = load ptr, ptr %11, align 8
  %69 = call ptr @proj_create_ellipsoidal_2D_cs(ptr noundef %68, i32 noundef 0, ptr noundef @.str.60, double noundef 1.000000e+00)
  store ptr %69, ptr %16, align 8
  %70 = load double, ptr %14, align 8
  %71 = fcmp une double %70, 0.000000e+00
  br i1 %71, label %72, label %88

72:                                               ; preds = %53
  %73 = load ptr, ptr %11, align 8
  %74 = load ptr, ptr %12, align 8
  %75 = call ptr @proj_get_ellipsoid(ptr noundef %73, ptr noundef %74)
  store ptr %75, ptr %17, align 8
  store double 0.000000e+00, ptr %18, align 8
  store double 0.000000e+00, ptr %19, align 8
  %76 = load ptr, ptr %11, align 8
  %77 = load ptr, ptr %17, align 8
  %78 = call i32 @proj_ellipsoid_get_parameters(ptr noundef %76, ptr noundef %77, ptr noundef %18, ptr noundef null, ptr noundef null, ptr noundef %19)
  %79 = load ptr, ptr %11, align 8
  %80 = load ptr, ptr %17, align 8
  %81 = call ptr @proj_get_name(ptr noundef %80)
  %82 = load double, ptr %18, align 8
  %83 = load double, ptr %19, align 8
  %84 = load ptr, ptr %16, align 8
  %85 = call ptr @proj_create_geographic_crs(ptr noundef %79, ptr noundef @.str.61, ptr noundef @.str.62, ptr noundef %81, double noundef %82, double noundef %83, ptr noundef @.str.63, double noundef 0.000000e+00, ptr noundef null, double noundef 0.000000e+00, ptr noundef %84)
  store ptr %85, ptr %15, align 8
  %86 = load ptr, ptr %17, align 8
  %87 = call ptr @proj_destroy(ptr noundef %86)
  br label %110

88:                                               ; preds = %53
  %89 = load ptr, ptr %11, align 8
  %90 = load ptr, ptr %12, align 8
  %91 = call ptr @proj_crs_get_datum(ptr noundef %89, ptr noundef %90)
  store ptr %91, ptr %20, align 8
  %92 = load ptr, ptr %11, align 8
  %93 = load ptr, ptr %12, align 8
  %94 = call ptr @proj_crs_get_datum_ensemble(ptr noundef %92, ptr noundef %93)
  store ptr %94, ptr %21, align 8
  %95 = load ptr, ptr %11, align 8
  %96 = load ptr, ptr %20, align 8
  %97 = icmp ne ptr %96, null
  br i1 %97, label %98, label %100

98:                                               ; preds = %88
  %99 = load ptr, ptr %20, align 8
  br label %102

100:                                              ; preds = %88
  %101 = load ptr, ptr %21, align 8
  br label %102

102:                                              ; preds = %100, %98
  %103 = phi ptr [ %99, %98 ], [ %101, %100 ]
  %104 = load ptr, ptr %16, align 8
  %105 = call ptr @proj_create_geographic_crs_from_datum(ptr noundef %95, ptr noundef @.str.64, ptr noundef %103, ptr noundef %104)
  store ptr %105, ptr %15, align 8
  %106 = load ptr, ptr %20, align 8
  %107 = call ptr @proj_destroy(ptr noundef %106)
  %108 = load ptr, ptr %21, align 8
  %109 = call ptr @proj_destroy(ptr noundef %108)
  br label %110

110:                                              ; preds = %102, %72
  %111 = load ptr, ptr %16, align 8
  %112 = call ptr @proj_destroy(ptr noundef %111)
  %113 = load ptr, ptr %11, align 8
  %114 = load ptr, ptr %4, align 8
  %115 = call ptr @proj_crs_get_coordoperation(ptr noundef %113, ptr noundef %114)
  store ptr %115, ptr %22, align 8
  %116 = load ptr, ptr %11, align 8
  %117 = call ptr @proj_create_cartesian_2D_cs(ptr noundef %116, i32 noundef 0, ptr noundef @.str.65, double noundef 1.000000e+00)
  store ptr %117, ptr %23, align 8
  %118 = load ptr, ptr %11, align 8
  %119 = load ptr, ptr %12, align 8
  %120 = load ptr, ptr %22, align 8
  %121 = load ptr, ptr %23, align 8
  %122 = call ptr @proj_create_projected_crs(ptr noundef %118, ptr noundef null, ptr noundef %119, ptr noundef %120, ptr noundef %121)
  store ptr %122, ptr %24, align 8
  %123 = load ptr, ptr %12, align 8
  %124 = call ptr @proj_destroy(ptr noundef %123)
  %125 = load ptr, ptr %22, align 8
  %126 = call ptr @proj_destroy(ptr noundef %125)
  %127 = load ptr, ptr %23, align 8
  %128 = call ptr @proj_destroy(ptr noundef %127)
  %129 = load ptr, ptr %11, align 8
  %130 = load ptr, ptr %15, align 8
  %131 = load ptr, ptr %24, align 8
  %132 = call ptr @proj_create_crs_to_crs_from_pj(ptr noundef %129, ptr noundef %130, ptr noundef %131, ptr noundef null, ptr noundef null)
  store ptr %132, ptr %25, align 8
  %133 = load ptr, ptr %15, align 8
  %134 = call ptr @proj_destroy(ptr noundef %133)
  %135 = load ptr, ptr %24, align 8
  %136 = call ptr @proj_destroy(ptr noundef %135)
  %137 = load ptr, ptr %25, align 8
  call void @llvm.memcpy.p0.p0.i64(ptr align 8 %26, ptr align 8 %2, i64 32, i1 false)
  call void @proj_factors(ptr dead_on_unwind writable sret(%struct.P5_FACTORS) align 8 %0, ptr noundef %137, ptr noundef byval(%union.PJ_COORD) align 8 %26)
  %138 = load ptr, ptr %25, align 8
  %139 = call ptr @proj_destroy(ptr noundef %138)
  br label %206

140:                                              ; preds = %50
  %141 = load i32, ptr %7, align 4
  %142 = icmp ne i32 %141, 21
  br i1 %142, label %143, label %156

143:                                              ; preds = %140
  %144 = load i32, ptr %7, align 4
  %145 = icmp ne i32 %144, 22
  br i1 %145, label %146, label %156

146:                                              ; preds = %143
  %147 = load i32, ptr %7, align 4
  %148 = icmp ne i32 %147, 23
  br i1 %148, label %149, label %156

149:                                              ; preds = %146
  %150 = load i32, ptr %7, align 4
  %151 = icmp ne i32 %150, 24
  br i1 %151, label %152, label %156

152:                                              ; preds = %149
  %153 = load ptr, ptr %4, align 8
  call void (ptr, ptr, ...) @_Z14proj_log_errorPK8PJconstsPKcz(ptr noundef %153, ptr noundef @.str.66)
  %154 = load ptr, ptr %4, align 8
  %155 = call i32 @proj_errno_set(ptr noundef %154, i32 noundef 1027)
  call void @llvm.memcpy.p0.p0.i64(ptr align 8 %0, ptr align 8 %5, i64 96, i1 false)
  br label %206

156:                                              ; preds = %149, %146, %143, %140
  call void @llvm.memcpy.p0.p0.i64(ptr align 8 %27, ptr align 8 %2, i64 16, i1 false)
  %157 = load ptr, ptr %4, align 8
  %158 = getelementptr inbounds { double, double }, ptr %27, i32 0, i32 0
  %159 = load double, ptr %158, align 8
  %160 = getelementptr inbounds { double, double }, ptr %27, i32 0, i32 1
  %161 = load double, ptr %160, align 8
  %162 = call noundef i32 @_Z10pj_factors5PJ_LPPK8PJconstsdP7FACTORS(double %159, double %161, ptr noundef %157, double noundef 0.000000e+00, ptr noundef %6)
  %163 = icmp ne i32 %162, 0
  br i1 %163, label %164, label %165

164:                                              ; preds = %156
  call void @llvm.memcpy.p0.p0.i64(ptr align 8 %0, ptr align 8 %5, i64 96, i1 false)
  br label %206

165:                                              ; preds = %156
  %166 = getelementptr inbounds %struct.FACTORS, ptr %6, i32 0, i32 1
  %167 = load double, ptr %166, align 8
  %168 = getelementptr inbounds %struct.P5_FACTORS, ptr %5, i32 0, i32 0
  store double %167, ptr %168, align 8
  %169 = getelementptr inbounds %struct.FACTORS, ptr %6, i32 0, i32 2
  %170 = load double, ptr %169, align 8
  %171 = getelementptr inbounds %struct.P5_FACTORS, ptr %5, i32 0, i32 1
  store double %170, ptr %171, align 8
  %172 = getelementptr inbounds %struct.FACTORS, ptr %6, i32 0, i32 6
  %173 = load double, ptr %172, align 8
  %174 = getelementptr inbounds %struct.P5_FACTORS, ptr %5, i32 0, i32 2
  store double %173, ptr %174, align 8
  %175 = getelementptr inbounds %struct.FACTORS, ptr %6, i32 0, i32 3
  %176 = load double, ptr %175, align 8
  %177 = getelementptr inbounds %struct.P5_FACTORS, ptr %5, i32 0, i32 3
  store double %176, ptr %177, align 8
  %178 = getelementptr inbounds %struct.FACTORS, ptr %6, i32 0, i32 4
  %179 = load double, ptr %178, align 8
  %180 = getelementptr inbounds %struct.P5_FACTORS, ptr %5, i32 0, i32 4
  store double %179, ptr %180, align 8
  %181 = getelementptr inbounds %struct.FACTORS, ptr %6, i32 0, i32 5
  %182 = load double, ptr %181, align 8
  %183 = getelementptr inbounds %struct.P5_FACTORS, ptr %5, i32 0, i32 5
  store double %182, ptr %183, align 8
  %184 = getelementptr inbounds %struct.FACTORS, ptr %6, i32 0, i32 7
  %185 = load double, ptr %184, align 8
  %186 = getelementptr inbounds %struct.P5_FACTORS, ptr %5, i32 0, i32 6
  store double %185, ptr %186, align 8
  %187 = getelementptr inbounds %struct.FACTORS, ptr %6, i32 0, i32 8
  %188 = load double, ptr %187, align 8
  %189 = getelementptr inbounds %struct.P5_FACTORS, ptr %5, i32 0, i32 7
  store double %188, ptr %189, align 8
  %190 = getelementptr inbounds %struct.FACTORS, ptr %6, i32 0, i32 0
  %191 = getelementptr inbounds %struct.DERIVS, ptr %190, i32 0, i32 0
  %192 = load double, ptr %191, align 8
  %193 = getelementptr inbounds %struct.P5_FACTORS, ptr %5, i32 0, i32 8
  store double %192, ptr %193, align 8
  %194 = getelementptr inbounds %struct.FACTORS, ptr %6, i32 0, i32 0
  %195 = getelementptr inbounds %struct.DERIVS, ptr %194, i32 0, i32 1
  %196 = load double, ptr %195, align 8
  %197 = getelementptr inbounds %struct.P5_FACTORS, ptr %5, i32 0, i32 9
  store double %196, ptr %197, align 8
  %198 = getelementptr inbounds %struct.FACTORS, ptr %6, i32 0, i32 0
  %199 = getelementptr inbounds %struct.DERIVS, ptr %198, i32 0, i32 2
  %200 = load double, ptr %199, align 8
  %201 = getelementptr inbounds %struct.P5_FACTORS, ptr %5, i32 0, i32 10
  store double %200, ptr %201, align 8
  %202 = getelementptr inbounds %struct.FACTORS, ptr %6, i32 0, i32 0
  %203 = getelementptr inbounds %struct.DERIVS, ptr %202, i32 0, i32 3
  %204 = load double, ptr %203, align 8
  %205 = getelementptr inbounds %struct.P5_FACTORS, ptr %5, i32 0, i32 11
  store double %204, ptr %205, align 8
  call void @llvm.memcpy.p0.p0.i64(ptr align 8 %0, ptr align 8 %5, i64 96, i1 false)
  br label %206

206:                                              ; preds = %165, %164, %152, %110, %45, %30
  ret void
}