; Function Attrs: mustprogress uwtable
define void @proj_factors(ptr dead_on_unwind noalias writable sret(%struct.P5_FACTORS) align 8 %0, ptr noundef %1, ptr nocapture noundef readonly byval(%union.PJ_COORD) align 8 %2) local_unnamed_addr #1 {
  %4 = alloca %struct.FACTORS, align 16
  %5 = alloca double, align 8
  %6 = alloca double, align 8
  %7 = alloca double, align 8
  %8 = icmp eq ptr %1, null
  br i1 %8, label %9, label %10

9:                                                ; preds = %3
  tail call void @llvm.memset.p0.i64(ptr noundef nonnull align 8 dereferenceable(96) %0, i8 0, i64 96, i1 false)
  br label %common.ret143

10:                                               ; preds = %3
  %11 = tail call i32 @proj_get_type(ptr noundef nonnull %1)
  switch i32 %11, label %52 [
    i32 16, label %12
    i32 15, label %17
  ]

12:                                               ; preds = %10
  %13 = load ptr, ptr %1, align 8
  %14 = tail call ptr @proj_crs_get_sub_crs(ptr noundef %13, ptr noundef nonnull %1, i32 noundef 0)
  %.not = icmp eq ptr %14, null
  br i1 %.not, label %.thread, label %15

common.ret143:                                    ; preds = %59, %58, %.thread, %39, %9, %15
  ret void

15:                                               ; preds = %12
  tail call void @proj_factors(ptr dead_on_unwind writable sret(%struct.P5_FACTORS) align 8 %0, ptr noundef nonnull %14, ptr noundef nonnull byval(%union.PJ_COORD) align 8 %2)
  %16 = tail call ptr @proj_destroy(ptr noundef nonnull %14)
  br label %common.ret143

17:                                               ; preds = %10
  %18 = load ptr, ptr %1, align 8
  %19 = tail call ptr @proj_get_source_crs(ptr noundef %18, ptr noundef nonnull %1)
  %20 = tail call ptr @proj_get_prime_meridian(ptr noundef %18, ptr noundef %19)
  store double 0.000000e+00, ptr %5, align 8
  %21 = call i32 @proj_prime_meridian_get_parameters(ptr noundef %18, ptr noundef %20, ptr noundef nonnull %5, ptr noundef null, ptr noundef null)
  %22 = call ptr @proj_destroy(ptr noundef %20)
  %23 = call ptr @proj_create_ellipsoidal_2D_cs(ptr noundef %18, i32 noundef 0, ptr noundef nonnull @.str.60, double noundef 1.000000e+00)
  %24 = load double, ptr %5, align 8
  %25 = fcmp une double %24, 0.000000e+00
  br i1 %25, label %26, label %33

26:                                               ; preds = %17
  %27 = call ptr @proj_get_ellipsoid(ptr noundef %18, ptr noundef %19)
  store double 0.000000e+00, ptr %6, align 8
  store double 0.000000e+00, ptr %7, align 8
  %28 = call i32 @proj_ellipsoid_get_parameters(ptr noundef %18, ptr noundef %27, ptr noundef nonnull %6, ptr noundef null, ptr noundef null, ptr noundef nonnull %7)
  %29 = call ptr @proj_get_name(ptr noundef %27)
  %30 = load double, ptr %6, align 8
  %31 = load double, ptr %7, align 8
  %32 = call ptr @proj_create_geographic_crs(ptr noundef %18, ptr noundef nonnull @.str.61, ptr noundef nonnull @.str.62, ptr noundef %29, double noundef %30, double noundef %31, ptr noundef nonnull @.str.63, double noundef 0.000000e+00, ptr noundef null, double noundef 0.000000e+00, ptr noundef %23)
  br label %39

33:                                               ; preds = %17
  %34 = call ptr @proj_crs_get_datum(ptr noundef %18, ptr noundef %19)
  %35 = call ptr @proj_crs_get_datum_ensemble(ptr noundef %18, ptr noundef %19)
  %.not141 = icmp eq ptr %34, null
  %36 = select i1 %.not141, ptr %35, ptr %34
  %37 = call ptr @proj_create_geographic_crs_from_datum(ptr noundef %18, ptr noundef nonnull @.str.64, ptr noundef %36, ptr noundef %23)
  %38 = call ptr @proj_destroy(ptr noundef %34)
  br label %39

39:                                               ; preds = %33, %26
  %.sink = phi ptr [ %35, %33 ], [ %27, %26 ]
  %.0 = phi ptr [ %37, %33 ], [ %32, %26 ]
  %40 = call ptr @proj_destroy(ptr noundef %.sink)
  %41 = call ptr @proj_destroy(ptr noundef %23)
  %42 = call ptr @proj_crs_get_coordoperation(ptr noundef %18, ptr noundef nonnull %1)
  %43 = call ptr @proj_create_cartesian_2D_cs(ptr noundef %18, i32 noundef 0, ptr noundef nonnull @.str.65, double noundef 1.000000e+00)
  %44 = call ptr @proj_create_projected_crs(ptr noundef %18, ptr noundef null, ptr noundef %19, ptr noundef %42, ptr noundef %43)
  %45 = call ptr @proj_destroy(ptr noundef %19)
  %46 = call ptr @proj_destroy(ptr noundef %42)
  %47 = call ptr @proj_destroy(ptr noundef %43)
  %48 = call ptr @proj_create_crs_to_crs_from_pj(ptr noundef %18, ptr noundef %.0, ptr noundef %44, ptr noundef null, ptr noundef null)
  %49 = call ptr @proj_destroy(ptr noundef %.0)
  %50 = call ptr @proj_destroy(ptr noundef %44)
  call void @proj_factors(ptr dead_on_unwind writable sret(%struct.P5_FACTORS) align 8 %0, ptr noundef %48, ptr noundef nonnull byval(%union.PJ_COORD) align 8 %2)
  %51 = call ptr @proj_destroy(ptr noundef %48)
  br label %common.ret143

52:                                               ; preds = %10
  %53 = add i32 %11, -25
  %or.cond5 = icmp ult i32 %53, -4
  br i1 %or.cond5, label %.thread, label %56

.thread:                                          ; preds = %12, %52
  tail call void (ptr, ptr, ...) @_Z14proj_log_errorPK8PJconstsPKcz(ptr noundef nonnull %1, ptr noundef nonnull @.str.66)
  %54 = tail call noundef ptr @_Z10pj_get_ctxP8PJconsts(ptr noundef nonnull %1)
  tail call void @_Z22proj_context_errno_setP6pj_ctxi(ptr noundef %54, i32 noundef 1027)
  %55 = tail call ptr @__errno_location() #34
  store i32 1027, ptr %55, align 4
  tail call void @llvm.memset.p0.i64(ptr noundef nonnull align 8 dereferenceable(96) %0, i8 0, i64 96, i1 false)
  br label %common.ret143

56:                                               ; preds = %52
  %.sroa.0.0.copyload = load double, ptr %2, align 8
  %.sroa.2.0..sroa_idx = getelementptr inbounds i8, ptr %2, i64 8
  %.sroa.2.0.copyload = load double, ptr %.sroa.2.0..sroa_idx, align 8
  %57 = call noundef i32 @_Z10pj_factors5PJ_LPPK8PJconstsdP7FACTORS(double %.sroa.0.0.copyload, double %.sroa.2.0.copyload, ptr noundef nonnull %1, double noundef 0.000000e+00, ptr noundef nonnull %4)
  %.not140 = icmp eq i32 %57, 0
  br i1 %.not140, label %59, label %58

58:                                               ; preds = %56
  call void @llvm.memset.p0.i64(ptr noundef nonnull align 8 dereferenceable(96) %0, i8 0, i64 96, i1 false)
  br label %common.ret143

59:                                               ; preds = %56
  %60 = getelementptr inbounds i8, ptr %4, i64 32
  %61 = getelementptr inbounds i8, ptr %4, i64 72
  %62 = load double, ptr %61, align 8
  %63 = getelementptr inbounds i8, ptr %4, i64 48
  %64 = getelementptr inbounds i8, ptr %4, i64 64
  %65 = load double, ptr %64, align 16
  %66 = getelementptr inbounds i8, ptr %4, i64 80
  %67 = getelementptr inbounds i8, ptr %4, i64 16
  %68 = load <2 x double>, ptr %60, align 16
  store <2 x double> %68, ptr %0, align 8
  %.sroa.7.0..sroa_idx71 = getelementptr inbounds i8, ptr %0, i64 16
  store double %62, ptr %.sroa.7.0..sroa_idx71, align 8
  %.sroa.8.0..sroa_idx77 = getelementptr inbounds i8, ptr %0, i64 24
  %69 = load <2 x double>, ptr %63, align 16
  store <2 x double> %69, ptr %.sroa.8.0..sroa_idx77, align 8
  %.sroa.10.0..sroa_idx89 = getelementptr inbounds i8, ptr %0, i64 40
  store double %65, ptr %.sroa.10.0..sroa_idx89, align 8
  %.sroa.11.0..sroa_idx95 = getelementptr inbounds i8, ptr %0, i64 48
  %70 = load <2 x double>, ptr %66, align 16
  store <2 x double> %70, ptr %.sroa.11.0..sroa_idx95, align 8
  %.sroa.13.0..sroa_idx107 = getelementptr inbounds i8, ptr %0, i64 64
  %71 = load <2 x double>, ptr %4, align 16
  store <2 x double> %71, ptr %.sroa.13.0..sroa_idx107, align 8
  %.sroa.15.0..sroa_idx119 = getelementptr inbounds i8, ptr %0, i64 80
  %72 = load <2 x double>, ptr %67, align 16
  store <2 x double> %72, ptr %.sroa.15.0..sroa_idx119, align 8
  br label %common.ret143
}